target datalayout = "e-m:e-p270:32:32-p271:32:32-p272:64:64-i64:64-i128:128-f80:128-n8:16:32:64-S128"
target triple = "x86_64-pc-linux-gnu"

%struct.AVOption = type { ptr, ptr, i32, i32, %union.anon.4, double, double, i32, ptr }
%union.anon.4 = type { i64 }

; Function Attrs: nounwind uwtable
define internal void @print_private_data(ptr noundef %0, ptr noundef %1) #0 {
  %3 = alloca ptr, align 8
  %4 = alloca ptr, align 8
  %5 = alloca ptr, align 8
  %6 = alloca ptr, align 8
  %7 = alloca i32, align 4
  store ptr %0, ptr %3, align 8, !tbaa !28
  store ptr %1, ptr %4, align 8, !tbaa !37
  call void @llvm.lifetime.start.p0(i64 8, ptr %5) #14
  store ptr null, ptr %5, align 8, !tbaa !603
  br label %8

8:                                                ; preds = %38, %36, %2
  %9 = load ptr, ptr %4, align 8, !tbaa !37
  %10 = load ptr, ptr %5, align 8, !tbaa !603
  %11 = call ptr @av_opt_next(ptr noundef %9, ptr noundef %10)
  store ptr %11, ptr %5, align 8, !tbaa !603
  %12 = icmp ne ptr %11, null
  br i1 %12, label %13, label %39

13:                                               ; preds = %8
  call void @llvm.lifetime.start.p0(i64 8, ptr %6) #14
  %14 = load ptr, ptr %5, align 8, !tbaa !603
  %15 = getelementptr inbounds nuw %struct.AVOption, ptr %14, i32 0, i32 7
  %16 = load i32, ptr %15, align 8, !tbaa !604
  %17 = and i32 %16, 64
  %18 = icmp ne i32 %17, 0
  br i1 %18, label %20, label %19

19:                                               ; preds = %13
  store i32 2, ptr %7, align 4
  br label %36, !llvm.loop !606

20:                                               ; preds = %13
  %21 = load ptr, ptr %4, align 8, !tbaa !37
  %22 = load ptr, ptr %5, align 8, !tbaa !603
  %23 = getelementptr inbounds nuw %struct.AVOption, ptr %22, i32 0, i32 0
  %24 = load ptr, ptr %23, align 8, !tbaa !607
  %25 = call i32 @av_opt_get(ptr noundef %21, ptr noundef %24, i32 noundef 0, ptr noundef %6)
  %26 = icmp sge i32 %25, 0
  br i1 %26, label %27, label %35

27:                                               ; preds = %20
  %28 = load ptr, ptr %3, align 8, !tbaa !28
  %29 = load ptr, ptr %5, align 8, !tbaa !603
  %30 = getelementptr inbounds nuw %struct.AVOption, ptr %29, i32 0, i32 0
  %31 = load ptr, ptr %30, align 8, !tbaa !607
  %32 = load ptr, ptr %6, align 8, !tbaa !4
  %33 = call i32 @avtext_print_string(ptr noundef %28, ptr noundef %31, ptr noundef %32, i32 noundef 0)
  %34 = load ptr, ptr %6, align 8, !tbaa !4
  call void @av_free(ptr noundef %34)
  br label %35

35:                                               ; preds = %27, %20
  store i32 0, ptr %7, align 4
  br label %36

36:                                               ; preds = %35, %19
  call void @llvm.lifetime.end.p0(i64 8, ptr %6) #14
  %37 = load i32, ptr %7, align 4
  switch i32 %37, label %40 [
    i32 0, label %38
    i32 2, label %8
  ]

38:                                               ; preds = %36
  br label %8, !llvm.loop !606

39:                                               ; preds = %8
  call void @llvm.lifetime.end.p0(i64 8, ptr %5) #14
  ret void

40:                                               ; preds = %36
  unreachable
}