; Function Attrs: nounwind uwtable
define internal fastcc void @print_private_data(ptr noundef %0, ptr noundef %1) unnamed_addr #0 {
  %3 = alloca ptr, align 8
  %4 = tail call ptr @av_opt_next(ptr noundef %1, ptr noundef null) #20
  %.not9 = icmp eq ptr %4, null
  br i1 %.not9, label %._crit_edge, label %.lr.ph

.lr.ph:                                           ; preds = %2, %18
  %5 = phi ptr [ %19, %18 ], [ %4, %2 ]
  call void @llvm.lifetime.start.p0(i64 8, ptr nonnull %3) #20
  %6 = getelementptr inbounds nuw i8, ptr %5, i64 48
  %7 = load i32, ptr %6, align 8, !tbaa !587
  %8 = and i32 %7, 64
  %.not8 = icmp eq i32 %8, 0
  br i1 %.not8, label %18, label %9, !llvm.loop !589

9:                                                ; preds = %.lr.ph
  %10 = load ptr, ptr %5, align 8, !tbaa !590
  %11 = call i32 @av_opt_get(ptr noundef %1, ptr noundef %10, i32 noundef 0, ptr noundef nonnull %3) #20
  %12 = icmp sgt i32 %11, -1
  br i1 %12, label %13, label %18

13:                                               ; preds = %9
  %14 = load ptr, ptr %5, align 8, !tbaa !590
  %15 = load ptr, ptr %3, align 8, !tbaa !13
  %16 = call i32 @avtext_print_string(ptr noundef %0, ptr noundef %14, ptr noundef %15, i32 noundef 0) #20
  %17 = load ptr, ptr %3, align 8, !tbaa !13
  call void @av_free(ptr noundef %17) #20
  br label %18

18:                                               ; preds = %9, %13, %.lr.ph
  call void @llvm.lifetime.end.p0(i64 8, ptr nonnull %3) #20
  %19 = call ptr @av_opt_next(ptr noundef %1, ptr noundef nonnull %5) #20
  %.not = icmp eq ptr %19, null
  br i1 %.not, label %._crit_edge, label %.lr.ph

._crit_edge:                                      ; preds = %18, %2
  ret void
}